; Function Attrs: mustprogress nounwind uwtable
define dso_local void @_ZN4llvm18CodeGenSchedModels20createSchedClassNameB5cxx11ERKSt6vectorIPNS_6RecordESaIS3_EE(ptr dead_on_unwind noalias nonnull writable sret(%"class.std::__cxx11::basic_string") align 8 %0, ptr noundef nonnull readnone align 8 captures(none) dereferenceable(336) %1, ptr noundef nonnull readonly align 8 captures(none) dereferenceable(24) %2) local_unnamed_addr #0 align 2 {
  tail call void @_ZNSt7__cxx1112basic_stringIcSt11char_traitsIcESaIcEEC1Ev(ptr noundef nonnull align 8 dereferenceable(32) %0) #20
  %4 = load ptr, ptr %2, align 8
  %5 = getelementptr inbounds nuw i8, ptr %2, i64 8
  %6 = load ptr, ptr %5, align 8
  %.not12 = icmp eq ptr %4, %6
  br i1 %.not12, label %._crit_edge, label %_ZN4llvm13ListSeparatorcvNS_9StringRefEEv.exit

_ZN4llvm13ListSeparatorcvNS_9StringRefEEv.exit:   ; preds = %3, %_ZN4llvm13ListSeparatorcvNS_9StringRefEEv.exit
  %.sroa.011.014 = phi i1 [ false, %_ZN4llvm13ListSeparatorcvNS_9StringRefEEv.exit ], [ true, %3 ]
  %.sroa.07.013 = phi ptr [ %12, %_ZN4llvm13ListSeparatorcvNS_9StringRefEEv.exit ], [ %4, %3 ]
  %7 = load ptr, ptr %.sroa.07.013, align 8
  %.sroa.0.0.i = select i1 %.sroa.011.014, ptr null, ptr @.str.51
  %not..sroa.011.0 = xor i1 %.sroa.011.014, true
  %.sroa.4.0.i = zext i1 %not..sroa.011.0 to i64
  %8 = tail call noundef nonnull align 8 dereferenceable(32) ptr @_ZNSt7__cxx1112basic_stringIcSt11char_traitsIcESaIcEE6appendEPKcm(ptr noundef nonnull align 8 dereferenceable(32) %0, ptr noundef %.sroa.0.0.i, i64 noundef %.sroa.4.0.i) #20
  %9 = load ptr, ptr %7, align 8
  %10 = getelementptr inbounds nuw i8, ptr %9, i64 24
  %.sroa.0.0.copyload.i.i = load ptr, ptr %10, align 8
  %.sroa.2.0..sroa_idx.i.i = getelementptr inbounds nuw i8, ptr %9, i64 32
  %.sroa.2.0.copyload.i.i = load i64, ptr %.sroa.2.0..sroa_idx.i.i, align 8
  %11 = tail call noundef nonnull align 8 dereferenceable(32) ptr @_ZNSt7__cxx1112basic_stringIcSt11char_traitsIcESaIcEE6appendEPKcm(ptr noundef nonnull align 8 dereferenceable(32) %0, ptr noundef %.sroa.0.0.copyload.i.i, i64 noundef %.sroa.2.0.copyload.i.i) #20
  %12 = getelementptr inbounds nuw i8, ptr %.sroa.07.013, i64 8
  %.not = icmp eq ptr %12, %6
  br i1 %.not, label %._crit_edge, label %_ZN4llvm13ListSeparatorcvNS_9StringRefEEv.exit

._crit_edge:                                      ; preds = %_ZN4llvm13ListSeparatorcvNS_9StringRefEEv.exit, %3
  ret void
}